; Function Attrs: mustprogress uwtable
define hidden noundef nonnull align 8 dereferenceable(20) ptr @_ZN3sls5bvect15set_shift_rightERKS0_S2_(ptr noundef nonnull returned align 8 dereferenceable(20) %0, ptr noundef nonnull readonly align 8 captures(none) dereferenceable(20) %1, ptr noundef nonnull readonly align 8 captures(none) dereferenceable(20) %2) local_unnamed_addr #3 align 2 {
  %4 = getelementptr inbounds nuw i8, ptr %2, i64 8
  %5 = load i32, ptr %4, align 8, !tbaa !3
  %.not2837.not.i = icmp eq i32 %5, 0
  br i1 %.not2837.not.i, label %_ZNK3sls5bvect6to_natEj.exit, label %.lr.ph.i

.lr.ph.i:                                         ; preds = %3
  %6 = load ptr, ptr %2, align 8
  br label %7

7:                                                ; preds = %17, %.lr.ph.i
  %.02040.i = phi i32 [ 0, %.lr.ph.i ], [ %27, %17 ]
  %.02139.i = phi i32 [ 0, %.lr.ph.i ], [ %spec.select29.i, %17 ]
  %.02338.i = phi i32 [ 1, %.lr.ph.i ], [ %26, %17 ]
  %.not.i = icmp ult i32 %.02338.i, %5
  br i1 %.not.i, label %17, label %.preheader.i

.preheader.i:                                     ; preds = %7
  %.not2741.i = icmp ult i32 %.02040.i, %5
  br i1 %.not2741.i, label %.lr.ph43.i, label %_ZNK3sls5bvect6to_natEj.exit

8:                                                ; preds = %.lr.ph43.i
  %9 = add i32 %.042.i, 1
  %exitcond50.not.i = icmp eq i32 %9, %5
  br i1 %exitcond50.not.i, label %_ZNK3sls5bvect6to_natEj.exit, label %.lr.ph43.i, !llvm.loop !59

.lr.ph43.i:                                       ; preds = %.preheader.i, %8
  %.042.i = phi i32 [ %9, %8 ], [ %.02040.i, %.preheader.i ]
  %10 = lshr i32 %.042.i, 5
  %11 = zext nneg i32 %10 to i64
  %12 = getelementptr inbounds nuw i32, ptr %6, i64 %11
  %13 = load i32, ptr %12, align 4, !tbaa !15
  %14 = and i32 %.042.i, 31
  %15 = shl nuw i32 1, %14
  %16 = and i32 %15, %13
  %.not31.i = icmp eq i32 %16, 0
  br i1 %.not31.i, label %8, label %_ZNK3sls5bvect6to_natEj.exit

17:                                               ; preds = %7
  %18 = lshr i32 %.02040.i, 5
  %19 = zext nneg i32 %18 to i64
  %20 = getelementptr inbounds nuw i32, ptr %6, i64 %19
  %21 = load i32, ptr %20, align 4, !tbaa !15
  %22 = and i32 %.02040.i, 31
  %23 = shl nuw i32 1, %22
  %24 = and i32 %21, %23
  %.not32.i = icmp eq i32 %24, 0
  %25 = select i1 %.not32.i, i32 0, i32 %.02338.i
  %spec.select29.i = add i32 %25, %.02139.i
  %26 = shl i32 %.02338.i, 1
  %27 = add nuw i32 %.02040.i, 1
  %exitcond.not.i = icmp eq i32 %27, %5
  br i1 %exitcond.not.i, label %_ZNK3sls5bvect6to_natEj.exit, label %7, !llvm.loop !60

_ZNK3sls5bvect6to_natEj.exit:                     ; preds = %17, %8, %.lr.ph43.i, %3, %.preheader.i
  %spec.select30.i = phi i32 [ %.02139.i, %.preheader.i ], [ 0, %3 ], [ %.02139.i, %8 ], [ %5, %.lr.ph43.i ], [ %spec.select29.i, %17 ]
  %28 = tail call noundef nonnull align 8 dereferenceable(20) ptr @_ZN3sls5bvect15set_shift_rightERKS0_j(ptr noundef nonnull align 8 dereferenceable(20) %0, ptr noundef nonnull align 8 dereferenceable(20) %1, i32 noundef %spec.select30.i)
  ret ptr %0
}